; Function Attrs: mustprogress uwtable
define internal fastcc noundef nonnull align 8 dereferenceable(8) ptr @_ZN4leanL9get_dummyEv() unnamed_addr #0 personality ptr @__gxx_personality_v0 {
  %1 = alloca %"class.lean::list_ref.0", align 8
  %2 = alloca %"class.lean::name", align 8
  %3 = alloca %"class.lean::name", align 8
  %4 = load ptr, ptr @_ZN4leanL7g_dummyE, align 8, !tbaa !36
  %.not = icmp eq ptr %4, null
  br i1 %.not, label %5, label %66

5:                                                ; preds = %0
  %6 = tail call noalias noundef nonnull dereferenceable(8) ptr @_Znwm(i64 noundef 8) #18
  call void @llvm.lifetime.start.p0(i64 8, ptr nonnull %3) #16
  call void @llvm.lifetime.start.p0(i64 8, ptr nonnull %2) #16
  store ptr inttoptr (i64 1 to ptr), ptr %2, align 8, !tbaa !10
  invoke void @_ZN4lean4nameC2ERKS0_PKc(ptr noundef nonnull align 8 dereferenceable(8) %3, ptr noundef nonnull align 8 dereferenceable(8) %2, ptr noundef nonnull @.str.2)
          to label %7 unwind label %21

7:                                                ; preds = %5
  %8 = load ptr, ptr %2, align 8, !tbaa !10
  %9 = ptrtoint ptr %8 to i64
  %10 = and i64 %9, 1
  %.not.i.i.i = icmp eq i64 %10, 0
  br i1 %.not.i.i.i, label %11, label %23

11:                                               ; preds = %7
  %12 = load i32, ptr %8, align 4, !tbaa !21
  %13 = icmp sgt i32 %12, 1
  br i1 %13, label %14, label %16, !prof !24

14:                                               ; preds = %11
  %15 = add nsw i32 %12, -1
  store i32 %15, ptr %8, align 4, !tbaa !21
  br label %23

16:                                               ; preds = %11
  %.not.i.i.i.i = icmp eq i32 %12, 0
  br i1 %.not.i.i.i.i, label %23, label %17

17:                                               ; preds = %16
  invoke void @lean_dec_ref_cold(ptr noundef nonnull %8)
          to label %23 unwind label %18

18:                                               ; preds = %17
  %19 = landingpad { ptr, i32 }
          catch ptr null
  %20 = extractvalue { ptr, i32 } %19, 0
  call void @__clang_call_terminate(ptr %20) #19
  unreachable

21:                                               ; preds = %5
  %22 = landingpad { ptr, i32 }
          cleanup
  call void @_ZN4lean10object_refD2Ev(ptr noundef nonnull align 8 dereferenceable(8) %2) #16
  call void @llvm.lifetime.end.p0(i64 8, ptr nonnull %2) #16
  br label %.body

23:                                               ; preds = %17, %16, %14, %7
  call void @llvm.lifetime.end.p0(i64 8, ptr nonnull %2) #16
  call void @llvm.experimental.noalias.scope.decl(metadata !38)
  call void @llvm.lifetime.start.p0(i64 8, ptr nonnull %1) #16, !noalias !38
  store ptr inttoptr (i64 1 to ptr), ptr %1, align 8, !tbaa !10, !noalias !38
  call void @llvm.experimental.noalias.scope.decl(metadata !41)
  call void @llvm.experimental.noalias.scope.decl(metadata !44)
  %24 = load ptr, ptr %3, align 8, !tbaa !10, !noalias !47
  %25 = ptrtoint ptr %24 to i64
  %26 = and i64 %25, 1
  %.not.i.i.i.i.i = icmp eq i64 %26, 0
  br i1 %.not.i.i.i.i.i, label %27, label %_ZN4lean8mk_constERKNS_4nameERKNS_8list_refINS_5levelEEE.exit.i.i

27:                                               ; preds = %23
  %.val.i.i.i.i.i.i = load i32, ptr %24, align 4, !tbaa !21, !noalias !47
  %28 = icmp sgt i32 %.val.i.i.i.i.i.i, 0
  br i1 %28, label %29, label %31, !prof !24

29:                                               ; preds = %27
  %30 = add nuw nsw i32 %.val.i.i.i.i.i.i, 1
  store i32 %30, ptr %24, align 4, !tbaa !21, !noalias !47
  br label %_ZN4lean8mk_constERKNS_4nameERKNS_8list_refINS_5levelEEE.exit.i.i

31:                                               ; preds = %27
  %.not.i.i.i.i.i.i = icmp eq i32 %.val.i.i.i.i.i.i, 0
  br i1 %.not.i.i.i.i.i.i, label %_ZN4lean8mk_constERKNS_4nameERKNS_8list_refINS_5levelEEE.exit.i.i, label %32

32:                                               ; preds = %31
  invoke void @lean_inc_ref_cold(ptr noundef nonnull %24)
          to label %.noexc.i unwind label %.body6, !noalias !38

.noexc.i:                                         ; preds = %32
  %.pre.i.i.i.i = load ptr, ptr %3, align 8, !tbaa !10, !noalias !47
  br label %_ZN4lean8mk_constERKNS_4nameERKNS_8list_refINS_5levelEEE.exit.i.i

_ZN4lean8mk_constERKNS_4nameERKNS_8list_refINS_5levelEEE.exit.i.i: ; preds = %.noexc.i, %31, %29, %23
  %33 = phi ptr [ %24, %23 ], [ %24, %29 ], [ %24, %31 ], [ %.pre.i.i.i.i, %.noexc.i ]
  %34 = invoke ptr @lean_expr_mk_const(ptr noundef %33, ptr noundef nonnull inttoptr (i64 1 to ptr))
          to label %35 unwind label %.body6, !noalias !38

35:                                               ; preds = %_ZN4lean8mk_constERKNS_4nameERKNS_8list_refINS_5levelEEE.exit.i.i
  store ptr %34, ptr %6, align 8, !tbaa !10, !alias.scope !47
  %36 = load ptr, ptr %1, align 8, !tbaa !10, !noalias !38
  %37 = ptrtoint ptr %36 to i64
  %38 = and i64 %37, 1
  %.not.i.i.i4 = icmp eq i64 %38, 0
  br i1 %.not.i.i.i4, label %39, label %50

39:                                               ; preds = %35
  %40 = load i32, ptr %36, align 4, !tbaa !21, !noalias !38
  %41 = icmp sgt i32 %40, 1
  br i1 %41, label %42, label %44, !prof !24

42:                                               ; preds = %39
  %43 = add nsw i32 %40, -1
  store i32 %43, ptr %36, align 4, !tbaa !21, !noalias !38
  br label %50

44:                                               ; preds = %39
  %.not.i.i.i.i5 = icmp eq i32 %40, 0
  br i1 %.not.i.i.i.i5, label %50, label %45

45:                                               ; preds = %44
  invoke void @lean_dec_ref_cold(ptr noundef nonnull %36)
          to label %50 unwind label %46, !noalias !38

46:                                               ; preds = %45
  %47 = landingpad { ptr, i32 }
          catch ptr null
  %48 = extractvalue { ptr, i32 } %47, 0
  call void @__clang_call_terminate(ptr %48) #19, !noalias !38
  unreachable

.body6:                                           ; preds = %_ZN4lean8mk_constERKNS_4nameERKNS_8list_refINS_5levelEEE.exit.i.i, %32
  %49 = landingpad { ptr, i32 }
          cleanup
  call void @_ZN4lean10object_refD2Ev(ptr noundef nonnull align 8 dereferenceable(8) %1) #16, !noalias !38
  call void @llvm.lifetime.end.p0(i64 8, ptr nonnull %1) #16, !noalias !38
  call void @_ZN4lean10object_refD2Ev(ptr noundef nonnull align 8 dereferenceable(8) %3) #16
  br label %.body

50:                                               ; preds = %45, %44, %42, %35
  call void @llvm.lifetime.end.p0(i64 8, ptr nonnull %1) #16, !noalias !38
  store ptr %6, ptr @_ZN4leanL7g_dummyE, align 8, !tbaa !36
  %51 = load ptr, ptr %3, align 8, !tbaa !10
  %52 = ptrtoint ptr %51 to i64
  %53 = and i64 %52, 1
  %.not.i.i = icmp eq i64 %53, 0
  br i1 %.not.i.i, label %54, label %_ZN4lean10object_refD2Ev.exit

54:                                               ; preds = %50
  %55 = load i32, ptr %51, align 4, !tbaa !21
  %56 = icmp sgt i32 %55, 1
  br i1 %56, label %57, label %59, !prof !24

57:                                               ; preds = %54
  %58 = add nsw i32 %55, -1
  store i32 %58, ptr %51, align 4, !tbaa !21
  br label %_ZN4lean10object_refD2Ev.exit

59:                                               ; preds = %54
  %.not.i.i.i8 = icmp eq i32 %55, 0
  br i1 %.not.i.i.i8, label %_ZN4lean10object_refD2Ev.exit, label %60

60:                                               ; preds = %59
  invoke void @lean_dec_ref_cold(ptr noundef nonnull %51)
          to label %._ZN4lean10object_refD2Ev.exit_crit_edge unwind label %61

._ZN4lean10object_refD2Ev.exit_crit_edge:         ; preds = %60
  %.pre = load ptr, ptr @_ZN4leanL7g_dummyE, align 8, !tbaa !36
  br label %_ZN4lean10object_refD2Ev.exit

61:                                               ; preds = %60
  %62 = landingpad { ptr, i32 }
          catch ptr null
  %63 = extractvalue { ptr, i32 } %62, 0
  call void @__clang_call_terminate(ptr %63) #19
  unreachable

_ZN4lean10object_refD2Ev.exit:                    ; preds = %._ZN4lean10object_refD2Ev.exit_crit_edge, %50, %57, %59
  %64 = phi ptr [ %.pre, %._ZN4lean10object_refD2Ev.exit_crit_edge ], [ %6, %50 ], [ %6, %57 ], [ %6, %59 ]
  call void @llvm.lifetime.end.p0(i64 8, ptr nonnull %3) #16
  %65 = load ptr, ptr %64, align 8, !tbaa !10
  call void @lean_mark_persistent(ptr noundef %65)
  %.pre9 = load ptr, ptr @_ZN4leanL7g_dummyE, align 8, !tbaa !36
  br label %66

.body:                                            ; preds = %21, %.body6
  %.pn = phi { ptr, i32 } [ %49, %.body6 ], [ %22, %21 ]
  call void @llvm.lifetime.end.p0(i64 8, ptr nonnull %3) #16
  call void @_ZdlPvm(ptr noundef nonnull %6, i64 noundef 8) #20
  resume { ptr, i32 } %.pn

66:                                               ; preds = %_ZN4lean10object_refD2Ev.exit, %0
  %67 = phi ptr [ %.pre9, %_ZN4lean10object_refD2Ev.exit ], [ %4, %0 ]
  ret ptr %67
}